target datalayout = "e-m:e-p270:32:32-p271:32:32-p272:64:64-i64:64-i128:128-f80:128-n8:16:32:64-S128"
target triple = "x86_64-unknown-linux-gnu"

%"class.std::basic_string_view" = type { i64, ptr }
%"class.grpc_core::RefCountedPtr.197" = type { ptr }
%"class.grpc_core::promise_detail::TrySeq" = type { %"struct.grpc_core::promise_detail::SeqState" }
%"struct.grpc_core::promise_detail::SeqState" = type <{ %union.anon.200, i8, [7 x i8] }>
%union.anon.200 = type { %"struct.grpc_core::promise_detail::SeqState<grpc_core::promise_detail::TrySeqTraits, grpc_core::for_each_detail::ForEach<grpc_core::PipeReceiver<std::unique_ptr<grpc_core::Message, grpc_core::Arena::PooledDeleter>>, (lambda at /home/dtcxzyw/WorkSpace/Projects/compilers/llvm-opt-benchmark/bench/grpc/grpc/src/core/lib/channel/connected_channel.cc:428:18)>, (lambda at /home/dtcxzyw/WorkSpace/Projects/compilers/llvm-opt-benchmark/bench/grpc/grpc/src/core/lib/channel/connected_channel.cc:459:14)>::Running0" }
%"struct.grpc_core::promise_detail::SeqState<grpc_core::promise_detail::TrySeqTraits, grpc_core::for_each_detail::ForEach<grpc_core::PipeReceiver<std::unique_ptr<grpc_core::Message, grpc_core::Arena::PooledDeleter>>, (lambda at /home/dtcxzyw/WorkSpace/Projects/compilers/llvm-opt-benchmark/bench/grpc/grpc/src/core/lib/channel/connected_channel.cc:428:18)>, (lambda at /home/dtcxzyw/WorkSpace/Projects/compilers/llvm-opt-benchmark/bench/grpc/grpc/src/core/lib/channel/connected_channel.cc:459:14)>::Running0" = type { %"class.grpc_core::promise_detail::PromiseLike", %"class.grpc_core::promise_detail::OncePromiseFactory.236" }
%"class.grpc_core::promise_detail::PromiseLike" = type { %"class.grpc_core::for_each_detail::ForEach" }
%"class.grpc_core::for_each_detail::ForEach" = type { %"class.grpc_core::PipeReceiver", %"class.grpc_core::promise_detail::RepeatedPromiseFactory", i8, %union.anon.203 }
%"class.grpc_core::PipeReceiver" = type { %"class.grpc_core::RefCountedPtr.201" }
%"class.grpc_core::RefCountedPtr.201" = type { ptr }
%"class.grpc_core::promise_detail::RepeatedPromiseFactory" = type { %class.anon.202 }
%class.anon.202 = type { %"class.grpc_core::RefCountedPtr.197" }
%union.anon.203 = type { %"struct.grpc_core::for_each_detail::ForEach<grpc_core::PipeReceiver<std::unique_ptr<grpc_core::Message, grpc_core::Arena::PooledDeleter>>, (lambda at /home/dtcxzyw/WorkSpace/Projects/compilers/llvm-opt-benchmark/bench/grpc/grpc/src/core/lib/channel/connected_channel.cc:428:18)>::InAction", [24 x i8] }
%"struct.grpc_core::for_each_detail::ForEach<grpc_core::PipeReceiver<std::unique_ptr<grpc_core::Message, grpc_core::Arena::PooledDeleter>>, (lambda at /home/dtcxzyw/WorkSpace/Projects/compilers/llvm-opt-benchmark/bench/grpc/grpc/src/core/lib/channel/connected_channel.cc:428:18)>::InAction" = type { %"class.grpc_core::promise_detail::PromiseLike.232", %"class.grpc_core::NextResult" }
%"class.grpc_core::promise_detail::PromiseLike.232" = type { %class.anon.233 }
%class.anon.233 = type { %"class.grpc_core::RefCountedPtr.234", %class.anon.235 }
%"class.grpc_core::RefCountedPtr.234" = type { ptr }
%class.anon.235 = type { ptr }
%"class.grpc_core::NextResult" = type <{ %"class.grpc_core::RefCountedPtr.201", i8, [7 x i8] }>
%"class.grpc_core::promise_detail::OncePromiseFactory.236" = type { %class.anon.237 }
%class.anon.237 = type { %"class.grpc_core::RefCountedPtr.197" }
%"class.grpc_core::Party::Participant" = type { ptr, ptr, %"class.std::basic_string_view" }
%"class.grpc_core::Party::ParticipantImpl.386" = type <{ %"class.grpc_core::Party::Participant", %union.anon.387, i8, [7 x i8] }>
%union.anon.387 = type { %"class.grpc_core::promise_detail::OncePromiseFactory.388" }
%"class.grpc_core::promise_detail::OncePromiseFactory.388" = type { %"class.grpc_core::promise_detail::TrySeq" }
%"class.grpc_core::promise_detail::PromiseLike.389" = type { %"class.grpc_core::promise_detail::TrySeq" }

@.str.19 = private unnamed_addr constant [118 x i8] c"generated/home/dtcxzyw/WorkSpace/Projects/compilers/llvm-opt-benchmark/bench/grpc/grpc/src/core/lib/promise/context.h\00", align 1
@.str.20 = private unnamed_addr constant [13 x i8] c"p != nullptr\00", align 1
@_ZN9grpc_core14promise_detail7ContextINS_5ArenaEE8current_E = linkonce_odr thread_local global ptr null, comdat, align 8

; Function Attrs: mustprogress nounwind uwtable
define internal void @"_ZN9grpc_core14promise_detail11PromiseLikeINS0_6TrySeqINS_15for_each_detail7ForEachINS_12PipeReceiverISt10unique_ptrINS_7MessageENS_5Arena13PooledDeleterEEEEZNS_12_GLOBAL__N_122ConnectedChannelStream12SendMessagesEPSB_E3$_0EEJZNSC_21MakeClientCallPromiseEPNS_9TransportENS_8CallArgsESt8functionIFNS_12ArenaPromiseIS6_I19grpc_metadata_batchS9_EEESJ_EEE3$_3EEEvED2Ev"(ptr noundef nonnull align 8 dereferenceable(96) %this) unnamed_addr #4 align 2 {
entry:
  %this.addr = alloca ptr, align 8
  store ptr %this, ptr %this.addr, align 8
  %this1 = load ptr, ptr %this.addr, align 8
  %f_ = getelementptr inbounds %"class.grpc_core::promise_detail::PromiseLike.389", ptr %this1, i32 0, i32 0
  call void @"_ZN9grpc_core14promise_detail6TrySeqINS_15for_each_detail7ForEachINS_12PipeReceiverISt10unique_ptrINS_7MessageENS_5Arena13PooledDeleterEEEEZNS_12_GLOBAL__N_122ConnectedChannelStream12SendMessagesEPSA_E3$_0EEJZNSB_21MakeClientCallPromiseEPNS_9TransportENS_8CallArgsESt8functionIFNS_12ArenaPromiseIS5_I19grpc_metadata_batchS8_EEESI_EEE3$_3EED2Ev"(ptr noundef nonnull align 8 dereferenceable(96) %f_) #3
  ret void
}

; Function Attrs: mustprogress nounwind uwtable
define internal void @"_ZN9grpc_core14promise_detail18OncePromiseFactoryIvNS0_6TrySeqINS_15for_each_detail7ForEachINS_12PipeReceiverISt10unique_ptrINS_7MessageENS_5Arena13PooledDeleterEEEEZNS_12_GLOBAL__N_122ConnectedChannelStream12SendMessagesEPSB_E3$_0EEJZNSC_21MakeClientCallPromiseEPNS_9TransportENS_8CallArgsESt8functionIFNS_12ArenaPromiseIS6_I19grpc_metadata_batchS9_EEESJ_EEE3$_3EEEED2Ev"(ptr noundef nonnull align 8 dereferenceable(96) %this) unnamed_addr #4 align 2 {
entry:
  %this.addr = alloca ptr, align 8
  store ptr %this, ptr %this.addr, align 8
  %this1 = load ptr, ptr %this.addr, align 8
  %f_ = getelementptr inbounds %"class.grpc_core::promise_detail::OncePromiseFactory.388", ptr %this1, i32 0, i32 0
  call void @"_ZN9grpc_core14promise_detail6TrySeqINS_15for_each_detail7ForEachINS_12PipeReceiverISt10unique_ptrINS_7MessageENS_5Arena13PooledDeleterEEEEZNS_12_GLOBAL__N_122ConnectedChannelStream12SendMessagesEPSA_E3$_0EEJZNSB_21MakeClientCallPromiseEPNS_9TransportENS_8CallArgsESt8functionIFNS_12ArenaPromiseIS5_I19grpc_metadata_batchS8_EEESI_EEE3$_3EED2Ev"(ptr noundef nonnull align 8 dereferenceable(96) %f_) #3
  ret void
}

; Function Attrs: noreturn nounwind uwtable
define linkonce_odr hidden void @__clang_call_terminate(ptr noundef %0) #7 comdat {
  %2 = call ptr @__cxa_begin_catch(ptr %0) #3
  call void @_ZSt9terminatev() #16
  unreachable
}

; Function Attrs: mustprogress nounwind uwtable
define internal void @"_ZN9grpc_core8DestructINS_14promise_detail11PromiseLikeINS1_6TrySeqINS_15for_each_detail7ForEachINS_12PipeReceiverISt10unique_ptrINS_7MessageENS_5Arena13PooledDeleterEEEEZNS_12_GLOBAL__N_122ConnectedChannelStream12SendMessagesEPSC_E3$_0EEJZNSD_21MakeClientCallPromiseEPNS_9TransportENS_8CallArgsESt8functionIFNS_12ArenaPromiseIS7_I19grpc_metadata_batchSA_EEESK_EEE3$_3EEEvEEEEvPT_"(ptr noundef %p) #4 {
entry:
  %p.addr = alloca ptr, align 8
  store ptr %p, ptr %p.addr, align 8
  %0 = load ptr, ptr %p.addr, align 8
  call void @"_ZN9grpc_core14promise_detail11PromiseLikeINS0_6TrySeqINS_15for_each_detail7ForEachINS_12PipeReceiverISt10unique_ptrINS_7MessageENS_5Arena13PooledDeleterEEEEZNS_12_GLOBAL__N_122ConnectedChannelStream12SendMessagesEPSB_E3$_0EEJZNSC_21MakeClientCallPromiseEPNS_9TransportENS_8CallArgsESt8functionIFNS_12ArenaPromiseIS6_I19grpc_metadata_batchS9_EEESJ_EEE3$_3EEEvED2Ev"(ptr noundef nonnull align 8 dereferenceable(96) %0) #3
  ret void
}

; Function Attrs: mustprogress nounwind uwtable
define internal void @"_ZN9grpc_core8DestructINS_14promise_detail18OncePromiseFactoryIvNS1_6TrySeqINS_15for_each_detail7ForEachINS_12PipeReceiverISt10unique_ptrINS_7MessageENS_5Arena13PooledDeleterEEEEZNS_12_GLOBAL__N_122ConnectedChannelStream12SendMessagesEPSC_E3$_0EEJZNSD_21MakeClientCallPromiseEPNS_9TransportENS_8CallArgsESt8functionIFNS_12ArenaPromiseIS7_I19grpc_metadata_batchSA_EEESK_EEE3$_3EEEEEEEvPT_"(ptr noundef %p) #4 {
entry:
  %p.addr = alloca ptr, align 8
  store ptr %p, ptr %p.addr, align 8
  %0 = load ptr, ptr %p.addr, align 8
  call void @"_ZN9grpc_core14promise_detail18OncePromiseFactoryIvNS0_6TrySeqINS_15for_each_detail7ForEachINS_12PipeReceiverISt10unique_ptrINS_7MessageENS_5Arena13PooledDeleterEEEEZNS_12_GLOBAL__N_122ConnectedChannelStream12SendMessagesEPSB_E3$_0EEJZNSC_21MakeClientCallPromiseEPNS_9TransportENS_8CallArgsESt8functionIFNS_12ArenaPromiseIS6_I19grpc_metadata_batchS9_EEESJ_EEE3$_3EEEED2Ev"(ptr noundef nonnull align 8 dereferenceable(96) %0) #3
  ret void
}

; Function Attrs: mustprogress nounwind uwtable
define internal void @"_ZN9grpc_core5Party15ParticipantImplINS_14promise_detail6TrySeqINS_15for_each_detail7ForEachINS_12PipeReceiverISt10unique_ptrINS_7MessageENS_5Arena13PooledDeleterEEEEZNS_12_GLOBAL__N_122ConnectedChannelStream12SendMessagesEPSC_E3$_0EEJZNSD_21MakeClientCallPromiseEPNS_9TransportENS_8CallArgsESt8functionIFNS_12ArenaPromiseIS7_I19grpc_metadata_batchSA_EEESK_EEE3$_3EEEZNSD_21MakeClientCallPromiseESJ_SK_SR_E3$_4ED2Ev"(ptr noundef nonnull align 8 dereferenceable(136) %this) unnamed_addr #4 align 2 personality ptr @__gxx_personality_v0 {
entry:
  %this.addr = alloca ptr, align 8
  store ptr %this, ptr %this.addr, align 8
  %this1 = load ptr, ptr %this.addr, align 8
  %started_ = getelementptr inbounds %"class.grpc_core::Party::ParticipantImpl.386", ptr %this1, i32 0, i32 2
  %0 = load i8, ptr %started_, align 8
  %tobool = trunc i8 %0 to i1
  br i1 %tobool, label %if.else, label %if.then

if.then:                                          ; preds = %entry
  %1 = getelementptr inbounds %"class.grpc_core::Party::ParticipantImpl.386", ptr %this1, i32 0, i32 1
  call void @"_ZN9grpc_core8DestructINS_14promise_detail18OncePromiseFactoryIvNS1_6TrySeqINS_15for_each_detail7ForEachINS_12PipeReceiverISt10unique_ptrINS_7MessageENS_5Arena13PooledDeleterEEEEZNS_12_GLOBAL__N_122ConnectedChannelStream12SendMessagesEPSC_E3$_0EEJZNSD_21MakeClientCallPromiseEPNS_9TransportENS_8CallArgsESt8functionIFNS_12ArenaPromiseIS7_I19grpc_metadata_batchSA_EEESK_EEE3$_3EEEEEEEvPT_"(ptr noundef %1)
  br label %if.end

if.else:                                          ; preds = %entry
  %2 = getelementptr inbounds %"class.grpc_core::Party::ParticipantImpl.386", ptr %this1, i32 0, i32 1
  invoke void @"_ZN9grpc_core8DestructINS_14promise_detail11PromiseLikeINS1_6TrySeqINS_15for_each_detail7ForEachINS_12PipeReceiverISt10unique_ptrINS_7MessageENS_5Arena13PooledDeleterEEEEZNS_12_GLOBAL__N_122ConnectedChannelStream12SendMessagesEPSC_E3$_0EEJZNSD_21MakeClientCallPromiseEPNS_9TransportENS_8CallArgsESt8functionIFNS_12ArenaPromiseIS7_I19grpc_metadata_batchSA_EEESK_EEE3$_3EEEvEEEEvPT_"(ptr noundef %2)
          to label %invoke.cont unwind label %terminate.lpad

invoke.cont:                                      ; preds = %if.else
  br label %if.end

if.end:                                           ; preds = %invoke.cont, %if.then
  call void @_ZN9grpc_core5Party11ParticipantD2Ev(ptr noundef nonnull align 8 dereferenceable(32) %this1) #3
  ret void

terminate.lpad:                                   ; preds = %if.else
  %3 = landingpad { ptr, i32 }
          catch ptr null
  %4 = extractvalue { ptr, i32 } %3, 0
  call void @__clang_call_terminate(ptr %4) #16
  unreachable
}

; Function Attrs: mustprogress nounwind uwtable
define linkonce_odr noundef ptr @_ZN9grpc_core14promise_detail7ContextINS_5ArenaEE3getEv() #4 comdat align 2 {
entry:
  %0 = call align 8 ptr @llvm.threadlocal.address.p0(ptr align 8 @_ZN9grpc_core14promise_detail7ContextINS_5ArenaEE8current_E)
  %1 = load ptr, ptr %0, align 8
  ret ptr %1
}

; Function Attrs: mustprogress nounwind uwtable
define internal void @"_ZN9grpc_core5Arena12DeletePooledINS_5Party15ParticipantImplINS_14promise_detail6TrySeqINS_15for_each_detail7ForEachINS_12PipeReceiverISt10unique_ptrINS_7MessageENS0_13PooledDeleterEEEEZNS_12_GLOBAL__N_122ConnectedChannelStream12SendMessagesEPSD_E3$_0EEJZNSE_21MakeClientCallPromiseEPNS_9TransportENS_8CallArgsESt8functionIFNS_12ArenaPromiseIS9_I19grpc_metadata_batchSB_EEESL_EEE3$_3EEEZNSE_21MakeClientCallPromiseESK_SL_SS_E3$_4EEEEvPT_"(ptr noundef nonnull align 8 dereferenceable(48) %this, ptr noundef %p) #4 align 2 {
entry:
  %this.addr = alloca ptr, align 8
  %p.addr = alloca ptr, align 8
  store ptr %this, ptr %this.addr, align 8
  store ptr %p, ptr %p.addr, align 8
  %0 = load ptr, ptr %p.addr, align 8
  %isnull = icmp eq ptr %0, null
  br i1 %isnull, label %delete.end, label %delete.notnull

delete.notnull:                                   ; preds = %entry
  call void @"_ZN9grpc_core5Party15ParticipantImplINS_14promise_detail6TrySeqINS_15for_each_detail7ForEachINS_12PipeReceiverISt10unique_ptrINS_7MessageENS_5Arena13PooledDeleterEEEEZNS_12_GLOBAL__N_122ConnectedChannelStream12SendMessagesEPSC_E3$_0EEJZNSD_21MakeClientCallPromiseEPNS_9TransportENS_8CallArgsESt8functionIFNS_12ArenaPromiseIS7_I19grpc_metadata_batchSA_EEESK_EEE3$_3EEEZNSD_21MakeClientCallPromiseESJ_SK_SR_E3$_4ED2Ev"(ptr noundef nonnull align 8 dereferenceable(136) %0) #3
  call void @_ZdlPv(ptr noundef %0) #18
  br label %delete.end

delete.end:                                       ; preds = %delete.notnull, %entry
  ret void
}

; Function Attrs: mustprogress uwtable
define linkonce_odr noundef ptr @_ZN9grpc_core10GetContextINS_5ArenaEEEPT_v() #5 comdat {
entry:
  %p = alloca ptr, align 8
  %call = call noundef ptr @_ZN9grpc_core14promise_detail7ContextINS_5ArenaEE3getEv()
  store ptr %call, ptr %p, align 8
  br label %do.body

do.body:                                          ; preds = %entry
  %0 = load ptr, ptr %p, align 8
  %cmp = icmp ne ptr %0, null
  %lnot = xor i1 %cmp, true
  br i1 %lnot, label %if.then, label %if.end

if.then:                                          ; preds = %do.body
  call void @gpr_assertion_failed(ptr noundef @.str.19, i32 noundef 80, ptr noundef @.str.20) #17
  unreachable

if.end:                                           ; preds = %do.body
  br label %do.end

do.end:                                           ; preds = %if.end
  %1 = load ptr, ptr %p, align 8
  ret ptr %1
}

; Function Attrs: mustprogress uwtable
define internal void @"_ZN9grpc_core5Party15ParticipantImplINS_14promise_detail6TrySeqINS_15for_each_detail7ForEachINS_12PipeReceiverISt10unique_ptrINS_7MessageENS_5Arena13PooledDeleterEEEEZNS_12_GLOBAL__N_122ConnectedChannelStream12SendMessagesEPSC_E3$_0EEJZNSD_21MakeClientCallPromiseEPNS_9TransportENS_8CallArgsESt8functionIFNS_12ArenaPromiseIS7_I19grpc_metadata_batchSA_EEESK_EEE3$_3EEEZNSD_21MakeClientCallPromiseESJ_SK_SR_E3$_4E7DestroyEv"(ptr noundef nonnull align 8 dereferenceable(136) %this) unnamed_addr #5 align 2 {
entry:
  %this.addr = alloca ptr, align 8
  store ptr %this, ptr %this.addr, align 8
  %this1 = load ptr, ptr %this.addr, align 8
  %call = call noundef ptr @_ZN9grpc_core10GetContextINS_5ArenaEEEPT_v()
  call void @"_ZN9grpc_core5Arena12DeletePooledINS_5Party15ParticipantImplINS_14promise_detail6TrySeqINS_15for_each_detail7ForEachINS_12PipeReceiverISt10unique_ptrINS_7MessageENS0_13PooledDeleterEEEEZNS_12_GLOBAL__N_122ConnectedChannelStream12SendMessagesEPSD_E3$_0EEJZNSE_21MakeClientCallPromiseEPNS_9TransportENS_8CallArgsESt8functionIFNS_12ArenaPromiseIS9_I19grpc_metadata_batchSB_EEESL_EEE3$_3EEEZNSE_21MakeClientCallPromiseESK_SL_SS_E3$_4EEEEvPT_"(ptr noundef nonnull align 8 dereferenceable(48) %call, ptr noundef %this1)
  ret void
}