; Function Attrs: mustprogress uwtable
define internal void @"_ZN9grpc_core5Party15ParticipantImplINS_14promise_detail6TrySeqINS_15for_each_detail7ForEachINS_12PipeReceiverISt10unique_ptrINS_7MessageENS_5Arena13PooledDeleterEEEEZNS_12_GLOBAL__N_122ConnectedChannelStream12SendMessagesEPSC_E3$_0EEJZNSD_21MakeClientCallPromiseEPNS_9TransportENS_8CallArgsESt8functionIFNS_12ArenaPromiseIS7_I19grpc_metadata_batchSA_EEESK_EEE3$_3EEEZNSD_21MakeClientCallPromiseESJ_SK_SR_E3$_4E7DestroyEv"(ptr noundef nonnull align 8 dereferenceable(136) %this) unnamed_addr #3 align 2 personality ptr @__gxx_personality_v0 {
entry:
  %0 = tail call align 8 ptr @llvm.threadlocal.address.p0(ptr align 8 @_ZN9grpc_core14promise_detail7ContextINS_5ArenaEE8current_E)
  %1 = load ptr, ptr %0, align 8
  %cmp.not.i = icmp eq ptr %1, null
  br i1 %cmp.not.i, label %if.then.i, label %_ZN9grpc_core10GetContextINS_5ArenaEEEPT_v.exit

if.then.i:                                        ; preds = %entry
  tail call void @gpr_assertion_failed(ptr noundef nonnull @.str.19, i32 noundef 80, ptr noundef nonnull @.str.20) #25
  unreachable

_ZN9grpc_core10GetContextINS_5ArenaEEEPT_v.exit:  ; preds = %entry
  %2 = getelementptr inbounds i8, ptr %this, i64 32
  tail call fastcc void @"_ZN9grpc_core14promise_detail6TrySeqINS_15for_each_detail7ForEachINS_12PipeReceiverISt10unique_ptrINS_7MessageENS_5Arena13PooledDeleterEEEEZNS_12_GLOBAL__N_122ConnectedChannelStream12SendMessagesEPSA_E3$_0EEJZNSB_21MakeClientCallPromiseEPNS_9TransportENS_8CallArgsESt8functionIFNS_12ArenaPromiseIS5_I19grpc_metadata_batchS8_EEESI_EEE3$_3EED2Ev"(ptr noundef nonnull align 8 dereferenceable(96) %2) #23
  tail call void @_ZN9grpc_core5Party11ParticipantD2Ev(ptr noundef nonnull align 8 dereferenceable(32) %this) #23
  tail call void @_ZdlPv(ptr noundef nonnull %this) #26
  ret void
}